; Function Attrs: mustprogress nounwind uwtable
define void @_ZN3gmx20AbstractAnalysisDataD2Ev(ptr noundef nonnull align 8 captures(none) dereferenceable(16) initializes((0, 8)) %0) unnamed_addr #11 align 2 personality ptr @__gxx_personality_v0 {
  store ptr getelementptr inbounds nuw inrange(-16, 40) (i8, ptr @_ZTVN3gmx20AbstractAnalysisDataE, i64 16), ptr %0, align 8, !tbaa !14
  %2 = getelementptr inbounds nuw i8, ptr %0, i64 8
  %3 = load ptr, ptr %2, align 8, !tbaa !16
  %.not.i = icmp eq ptr %3, null
  br i1 %.not.i, label %_ZNSt10unique_ptrIN3gmx20AbstractAnalysisData4ImplESt14default_deleteIS2_EED2Ev.exit, label %4

4:                                                ; preds = %1
  %5 = getelementptr inbounds nuw i8, ptr %3, i64 32
  tail call void @_ZN3gmx25AnalysisDataModuleManagerD1Ev(ptr noundef nonnull align 8 dereferenceable(8) %5) #27
  %6 = load ptr, ptr %3, align 8, !tbaa !13
  %.not.i.i.i.i.i.i = icmp eq ptr %6, null
  br i1 %.not.i.i.i.i.i.i, label %_ZNKSt14default_deleteIN3gmx20AbstractAnalysisData4ImplEEclEPS2_.exit.i, label %7

7:                                                ; preds = %4
  %8 = getelementptr inbounds nuw i8, ptr %3, i64 16
  %9 = load ptr, ptr %8, align 8, !tbaa !10
  %10 = ptrtoint ptr %9 to i64
  %11 = ptrtoint ptr %6 to i64
  %12 = sub i64 %10, %11
  tail call void @_ZdlPvm(ptr noundef nonnull %6, i64 noundef %12) #26
  br label %_ZNKSt14default_deleteIN3gmx20AbstractAnalysisData4ImplEEclEPS2_.exit.i

_ZNKSt14default_deleteIN3gmx20AbstractAnalysisData4ImplEEclEPS2_.exit.i: ; preds = %7, %4
  tail call void @_ZdlPvm(ptr noundef nonnull %3, i64 noundef 40) #26
  br label %_ZNSt10unique_ptrIN3gmx20AbstractAnalysisData4ImplESt14default_deleteIS2_EED2Ev.exit

_ZNSt10unique_ptrIN3gmx20AbstractAnalysisData4ImplESt14default_deleteIS2_EED2Ev.exit: ; preds = %1, %_ZNKSt14default_deleteIN3gmx20AbstractAnalysisData4ImplEEclEPS2_.exit.i
  store ptr null, ptr %2, align 8, !tbaa !16
  ret void
}